target datalayout = "e-m:e-p270:32:32-p271:32:32-p272:64:64-i64:64-i128:128-f80:128-n8:16:32:64-S128"
target triple = "x86_64-pc-linux-gnu"

%struct.bio_ssl_st = type { ptr, i32, i64, i64, i64, i64 }

@.str.2 = private unnamed_addr constant [25 x i8] c"../openssl/ssl/bio_ssl.c\00", align 1

; Function Attrs: nounwind uwtable
define internal i32 @ssl_free(ptr noundef %0) #0 {
  %2 = alloca i32, align 4
  %3 = alloca ptr, align 8
  %4 = alloca ptr, align 8
  %5 = alloca i32, align 4
  store ptr %0, ptr %3, align 8, !tbaa !8
  call void @llvm.lifetime.start.p0(i64 8, ptr %4) #5
  %6 = load ptr, ptr %3, align 8, !tbaa !8
  %7 = icmp eq ptr %6, null
  br i1 %7, label %8, label %9

8:                                                ; preds = %1
  store i32 0, ptr %2, align 4
  store i32 1, ptr %5, align 4
  br label %44

9:                                                ; preds = %1
  %10 = load ptr, ptr %3, align 8, !tbaa !8
  %11 = call ptr @BIO_get_data(ptr noundef %10)
  store ptr %11, ptr %4, align 8, !tbaa !50
  %12 = load ptr, ptr %3, align 8, !tbaa !8
  %13 = call i32 @BIO_get_shutdown(ptr noundef %12)
  %14 = icmp ne i32 %13, 0
  br i1 %14, label %15, label %42

15:                                               ; preds = %9
  %16 = load ptr, ptr %4, align 8, !tbaa !50
  %17 = getelementptr inbounds nuw %struct.bio_ssl_st, ptr %16, i32 0, i32 0
  %18 = load ptr, ptr %17, align 8, !tbaa !52
  %19 = icmp ne ptr %18, null
  br i1 %19, label %20, label %31

20:                                               ; preds = %15
  %21 = load ptr, ptr %4, align 8, !tbaa !50
  %22 = getelementptr inbounds nuw %struct.bio_ssl_st, ptr %21, i32 0, i32 0
  %23 = load ptr, ptr %22, align 8, !tbaa !52
  %24 = call i32 @SSL_in_init(ptr noundef %23)
  %25 = icmp ne i32 %24, 0
  br i1 %25, label %31, label %26

26:                                               ; preds = %20
  %27 = load ptr, ptr %4, align 8, !tbaa !50
  %28 = getelementptr inbounds nuw %struct.bio_ssl_st, ptr %27, i32 0, i32 0
  %29 = load ptr, ptr %28, align 8, !tbaa !52
  %30 = call i32 @SSL_shutdown(ptr noundef %29)
  br label %31

31:                                               ; preds = %26, %20, %15
  %32 = load ptr, ptr %3, align 8, !tbaa !8
  %33 = call i32 @BIO_get_init(ptr noundef %32)
  %34 = icmp ne i32 %33, 0
  br i1 %34, label %35, label %39

35:                                               ; preds = %31
  %36 = load ptr, ptr %4, align 8, !tbaa !50
  %37 = getelementptr inbounds nuw %struct.bio_ssl_st, ptr %36, i32 0, i32 0
  %38 = load ptr, ptr %37, align 8, !tbaa !52
  call void @SSL_free(ptr noundef %38)
  br label %39

39:                                               ; preds = %35, %31
  %40 = load ptr, ptr %3, align 8, !tbaa !8
  call void @BIO_clear_flags(ptr noundef %40, i32 noundef -1)
  %41 = load ptr, ptr %3, align 8, !tbaa !8
  call void @BIO_set_init(ptr noundef %41, i32 noundef 0)
  br label %42

42:                                               ; preds = %39, %9
  %43 = load ptr, ptr %4, align 8, !tbaa !50
  call void @CRYPTO_free(ptr noundef %43, ptr noundef @.str.2, i32 noundef 91)
  store i32 1, ptr %2, align 4
  store i32 1, ptr %5, align 4
  br label %44

44:                                               ; preds = %42, %8
  call void @llvm.lifetime.end.p0(i64 8, ptr %4) #5
  %45 = load i32, ptr %2, align 4
  ret i32 %45
}