; Function Attrs: nounwind uwtable
define internal range(i32 0, 2) i32 @ssl_free(ptr noundef %0) #1 {
  %2 = icmp eq ptr %0, null
  br i1 %2, label %19, label %3

3:                                                ; preds = %1
  %4 = tail call ptr @BIO_get_data(ptr noundef nonnull %0) #5
  %5 = tail call i32 @BIO_get_shutdown(ptr noundef nonnull %0) #5
  %.not = icmp eq i32 %5, 0
  br i1 %.not, label %18, label %6

6:                                                ; preds = %3
  %7 = load ptr, ptr %4, align 8, !tbaa !43
  %.not13 = icmp eq ptr %7, null
  br i1 %.not13, label %13, label %8

8:                                                ; preds = %6
  %9 = tail call i32 @SSL_in_init(ptr noundef nonnull %7) #5
  %.not14 = icmp eq i32 %9, 0
  br i1 %.not14, label %10, label %13

10:                                               ; preds = %8
  %11 = load ptr, ptr %4, align 8, !tbaa !43
  %12 = tail call i32 @SSL_shutdown(ptr noundef %11) #5
  br label %13

13:                                               ; preds = %10, %8, %6
  %14 = tail call i32 @BIO_get_init(ptr noundef nonnull %0) #5
  %.not15 = icmp eq i32 %14, 0
  br i1 %.not15, label %17, label %15

15:                                               ; preds = %13
  %16 = load ptr, ptr %4, align 8, !tbaa !43
  tail call void @SSL_free(ptr noundef %16) #5
  br label %17

17:                                               ; preds = %15, %13
  tail call void @BIO_clear_flags(ptr noundef nonnull %0, i32 noundef -1) #5
  tail call void @BIO_set_init(ptr noundef nonnull %0, i32 noundef 0) #5
  br label %18

18:                                               ; preds = %17, %3
  tail call void @CRYPTO_free(ptr noundef %4, ptr noundef nonnull @.str.2, i32 noundef 91) #5
  br label %19

19:                                               ; preds = %1, %18
  %.0 = phi i32 [ 1, %18 ], [ 0, %1 ]
  ret i32 %.0
}